target datalayout = "e-m:e-p270:32:32-p271:32:32-p272:64:64-i64:64-i128:128-f80:128-n8:16:32:64-S128"
target triple = "x86_64-pc-linux-gnu"

%struct.Abc_ShaMan_t_ = type { i32, i32, ptr, ptr, ptr, i32, i32, i32 }
%struct.Vec_Int_t_ = type { i32, i32, ptr }
%struct.Vec_Ptr_t_ = type { i32, i32, ptr }

@.str = private unnamed_addr constant [12 x i8] c"%4d%3d: %s\0A\00", align 1
@.str.1 = private unnamed_addr constant [7 x i8] c"%d=%d \00", align 1
@.str.2 = private unnamed_addr constant [2 x i8] c"\0A\00", align 1
@.str.3 = private unnamed_addr constant [14 x i8] c"Total = %d.  \00", align 1
@.str.4 = private unnamed_addr constant [13 x i8] c"Gates = %d.\0A\00", align 1
@.str.5 = private unnamed_addr constant [18 x i8] c"Bucket contents: \00", align 1
@.str.6 = private unnamed_addr constant [4 x i8] c"%d \00", align 1

; Function Attrs: inlinehint nounwind uwtable
define internal i32 @Vec_IntEntry(ptr noundef %0, i32 noundef %1) #3 {
  %3 = alloca ptr, align 8
  %4 = alloca i32, align 4
  store ptr %0, ptr %3, align 8, !tbaa !17
  store i32 %1, ptr %4, align 4, !tbaa !16
  %5 = load ptr, ptr %3, align 8, !tbaa !17
  %6 = getelementptr inbounds nuw %struct.Vec_Int_t_, ptr %5, i32 0, i32 2
  %7 = load ptr, ptr %6, align 8, !tbaa !22
  %8 = load i32, ptr %4, align 4, !tbaa !16
  %9 = sext i32 %8 to i64
  %10 = getelementptr inbounds i32, ptr %7, i64 %9
  %11 = load i32, ptr %10, align 4, !tbaa !16
  ret i32 %11
}

; Function Attrs: inlinehint nounwind uwtable
define internal ptr @Vec_PtrEntry(ptr noundef %0, i32 noundef %1) #3 {
  %3 = alloca ptr, align 8
  %4 = alloca i32, align 4
  store ptr %0, ptr %3, align 8, !tbaa !24
  store i32 %1, ptr %4, align 4, !tbaa !16
  %5 = load ptr, ptr %3, align 8, !tbaa !24
  %6 = getelementptr inbounds nuw %struct.Vec_Ptr_t_, ptr %5, i32 0, i32 2
  %7 = load ptr, ptr %6, align 8, !tbaa !29
  %8 = load i32, ptr %4, align 4, !tbaa !16
  %9 = sext i32 %8 to i64
  %10 = getelementptr inbounds ptr, ptr %7, i64 %9
  %11 = load ptr, ptr %10, align 8, !tbaa !30
  ret ptr %11
}

; Function Attrs: inlinehint nounwind uwtable
define internal i32 @Vec_PtrSize(ptr noundef %0) #3 {
  %2 = alloca ptr, align 8
  store ptr %0, ptr %2, align 8, !tbaa !24
  %3 = load ptr, ptr %2, align 8, !tbaa !24
  %4 = getelementptr inbounds nuw %struct.Vec_Ptr_t_, ptr %3, i32 0, i32 1
  %5 = load i32, ptr %4, align 4, !tbaa !27
  ret i32 %5
}

; Function Attrs: inlinehint nounwind uwtable
define internal i32 @Vec_IntSize(ptr noundef %0) #3 {
  %2 = alloca ptr, align 8
  store ptr %0, ptr %2, align 8, !tbaa !17
  %3 = load ptr, ptr %2, align 8, !tbaa !17
  %4 = getelementptr inbounds nuw %struct.Vec_Int_t_, ptr %3, i32 0, i32 1
  %5 = load i32, ptr %4, align 4, !tbaa !18
  ret i32 %5
}

; Function Attrs: nounwind uwtable
define void @Abc_NtkSharePrint(ptr noundef %0) #0 {
  %2 = alloca ptr, align 8
  %3 = alloca ptr, align 8
  %4 = alloca ptr, align 8
  %5 = alloca i32, align 4
  %6 = alloca i32, align 4
  %7 = alloca i32, align 4
  %8 = alloca i32, align 4
  %9 = alloca ptr, align 8
  %10 = alloca ptr, align 8
  %11 = alloca i32, align 4
  store ptr %0, ptr %2, align 8, !tbaa !8
  call void @llvm.lifetime.start.p0(i64 8, ptr %3) #9
  call void @llvm.lifetime.start.p0(i64 8, ptr %4) #9
  call void @llvm.lifetime.start.p0(i64 4, ptr %5) #9
  call void @llvm.lifetime.start.p0(i64 4, ptr %6) #9
  call void @llvm.lifetime.start.p0(i64 4, ptr %7) #9
  call void @llvm.lifetime.start.p0(i64 4, ptr %8) #9
  call void @llvm.lifetime.start.p0(i64 8, ptr %9) #9
  %12 = load ptr, ptr %2, align 8, !tbaa !8
  %13 = getelementptr inbounds nuw %struct.Abc_ShaMan_t_, ptr %12, i32 0, i32 4
  %14 = load ptr, ptr %13, align 8, !tbaa !15
  %15 = call i32 @Vec_IntSize(ptr noundef %14)
  %16 = add nsw i32 %15, 1
  %17 = sext i32 %16 to i64
  %18 = mul i64 1, %17
  %19 = call noalias ptr @malloc(i64 noundef %18) #11
  store ptr %19, ptr %9, align 8, !tbaa !94
  call void @llvm.lifetime.start.p0(i64 8, ptr %10) #9
  %20 = load ptr, ptr %2, align 8, !tbaa !8
  %21 = getelementptr inbounds nuw %struct.Abc_ShaMan_t_, ptr %20, i32 0, i32 4
  %22 = load ptr, ptr %21, align 8, !tbaa !15
  %23 = call i32 @Vec_IntSize(ptr noundef %22)
  %24 = add nsw i32 %23, 1
  %25 = sext i32 %24 to i64
  %26 = call noalias ptr @calloc(i64 noundef %25, i64 noundef 4) #10
  store ptr %26, ptr %10, align 8, !tbaa !40
  call void @llvm.lifetime.start.p0(i64 4, ptr %11) #9
  store i32 0, ptr %11, align 4, !tbaa !16
  store i32 0, ptr %5, align 4, !tbaa !16
  br label %27

27:                                               ; preds = %111, %1
  %28 = load i32, ptr %5, align 4, !tbaa !16
  %29 = load ptr, ptr %2, align 8, !tbaa !8
  %30 = getelementptr inbounds nuw %struct.Abc_ShaMan_t_, ptr %29, i32 0, i32 3
  %31 = load ptr, ptr %30, align 8, !tbaa !23
  %32 = call i32 @Vec_PtrSize(ptr noundef %31)
  %33 = icmp slt i32 %28, %32
  br i1 %33, label %34, label %40

34:                                               ; preds = %27
  %35 = load ptr, ptr %2, align 8, !tbaa !8
  %36 = getelementptr inbounds nuw %struct.Abc_ShaMan_t_, ptr %35, i32 0, i32 3
  %37 = load ptr, ptr %36, align 8, !tbaa !23
  %38 = load i32, ptr %5, align 4, !tbaa !16
  %39 = call ptr @Vec_PtrEntry(ptr noundef %37, i32 noundef %38)
  store ptr %39, ptr %3, align 8, !tbaa !24
  br label %40

40:                                               ; preds = %34, %27
  %41 = phi i1 [ false, %27 ], [ true, %34 ]
  br i1 %41, label %42, label %114

42:                                               ; preds = %40
  store i32 0, ptr %7, align 4, !tbaa !16
  br label %43

43:                                               ; preds = %107, %42
  %44 = load i32, ptr %7, align 4, !tbaa !16
  %45 = load ptr, ptr %3, align 8, !tbaa !24
  %46 = call i32 @Vec_PtrSize(ptr noundef %45)
  %47 = icmp slt i32 %44, %46
  br i1 %47, label %48, label %52

48:                                               ; preds = %43
  %49 = load ptr, ptr %3, align 8, !tbaa !24
  %50 = load i32, ptr %7, align 4, !tbaa !16
  %51 = call ptr @Vec_PtrEntry(ptr noundef %49, i32 noundef %50)
  store ptr %51, ptr %4, align 8, !tbaa !17
  br label %52

52:                                               ; preds = %48, %43
  %53 = phi i1 [ false, %43 ], [ true, %48 ]
  br i1 %53, label %54, label %110

54:                                               ; preds = %52
  store i32 0, ptr %6, align 4, !tbaa !16
  br label %55

55:                                               ; preds = %67, %54
  %56 = load i32, ptr %6, align 4, !tbaa !16
  %57 = load ptr, ptr %2, align 8, !tbaa !8
  %58 = getelementptr inbounds nuw %struct.Abc_ShaMan_t_, ptr %57, i32 0, i32 4
  %59 = load ptr, ptr %58, align 8, !tbaa !15
  %60 = call i32 @Vec_IntSize(ptr noundef %59)
  %61 = icmp slt i32 %56, %60
  br i1 %61, label %62, label %70

62:                                               ; preds = %55
  %63 = load ptr, ptr %9, align 8, !tbaa !94
  %64 = load i32, ptr %6, align 4, !tbaa !16
  %65 = sext i32 %64 to i64
  %66 = getelementptr inbounds i8, ptr %63, i64 %65
  store i8 48, ptr %66, align 1, !tbaa !95
  br label %67

67:                                               ; preds = %62
  %68 = load i32, ptr %6, align 4, !tbaa !16
  %69 = add nsw i32 %68, 1
  store i32 %69, ptr %6, align 4, !tbaa !16
  br label %55, !llvm.loop !96

70:                                               ; preds = %55
  %71 = load ptr, ptr %9, align 8, !tbaa !94
  %72 = load i32, ptr %6, align 4, !tbaa !16
  %73 = sext i32 %72 to i64
  %74 = getelementptr inbounds i8, ptr %71, i64 %73
  store i8 0, ptr %74, align 1, !tbaa !95
  store i32 2, ptr %6, align 4, !tbaa !16
  br label %75

75:                                               ; preds = %97, %70
  %76 = load i32, ptr %6, align 4, !tbaa !16
  %77 = load ptr, ptr %4, align 8, !tbaa !17
  %78 = call i32 @Vec_IntSize(ptr noundef %77)
  %79 = icmp slt i32 %76, %78
  br i1 %79, label %80, label %84

80:                                               ; preds = %75
  %81 = load ptr, ptr %4, align 8, !tbaa !17
  %82 = load i32, ptr %6, align 4, !tbaa !16
  %83 = call i32 @Vec_IntEntry(ptr noundef %81, i32 noundef %82)
  store i32 %83, ptr %8, align 4, !tbaa !16
  br label %84

84:                                               ; preds = %80, %75
  %85 = phi i1 [ false, %75 ], [ true, %80 ]
  br i1 %85, label %86, label %100

86:                                               ; preds = %84
  %87 = load ptr, ptr %9, align 8, !tbaa !94
  %88 = load i32, ptr %8, align 4, !tbaa !16
  %89 = sext i32 %88 to i64
  %90 = getelementptr inbounds i8, ptr %87, i64 %89
  store i8 49, ptr %90, align 1, !tbaa !95
  %91 = load ptr, ptr %10, align 8, !tbaa !40
  %92 = load i32, ptr %8, align 4, !tbaa !16
  %93 = sext i32 %92 to i64
  %94 = getelementptr inbounds i32, ptr %91, i64 %93
  %95 = load i32, ptr %94, align 4, !tbaa !16
  %96 = add nsw i32 %95, 1
  store i32 %96, ptr %94, align 4, !tbaa !16
  br label %97

97:                                               ; preds = %86
  %98 = load i32, ptr %6, align 4, !tbaa !16
  %99 = add nsw i32 %98, 1
  store i32 %99, ptr %6, align 4, !tbaa !16
  br label %75, !llvm.loop !97

100:                                              ; preds = %84
  %101 = load ptr, ptr %4, align 8, !tbaa !17
  %102 = call i32 @Vec_IntEntry(ptr noundef %101, i32 noundef 0)
  %103 = load ptr, ptr %4, align 8, !tbaa !17
  %104 = call i32 @Vec_IntEntry(ptr noundef %103, i32 noundef 1)
  %105 = load ptr, ptr %9, align 8, !tbaa !94
  %106 = call i32 (ptr, ...) @printf(ptr noundef @.str, i32 noundef %102, i32 noundef %104, ptr noundef %105)
  br label %107

107:                                              ; preds = %100
  %108 = load i32, ptr %7, align 4, !tbaa !16
  %109 = add nsw i32 %108, 1
  store i32 %109, ptr %7, align 4, !tbaa !16
  br label %43, !llvm.loop !98

110:                                              ; preds = %52
  br label %111

111:                                              ; preds = %110
  %112 = load i32, ptr %5, align 4, !tbaa !16
  %113 = add nsw i32 %112, 1
  store i32 %113, ptr %5, align 4, !tbaa !16
  br label %27, !llvm.loop !99

114:                                              ; preds = %40
  store i32 0, ptr %5, align 4, !tbaa !16
  br label %115

115:                                              ; preds = %138, %114
  %116 = load i32, ptr %5, align 4, !tbaa !16
  %117 = load ptr, ptr %2, align 8, !tbaa !8
  %118 = getelementptr inbounds nuw %struct.Abc_ShaMan_t_, ptr %117, i32 0, i32 4
  %119 = load ptr, ptr %118, align 8, !tbaa !15
  %120 = call i32 @Vec_IntSize(ptr noundef %119)
  %121 = icmp slt i32 %116, %120
  br i1 %121, label %122, label %141

122:                                              ; preds = %115
  %123 = load ptr, ptr %10, align 8, !tbaa !40
  %124 = load i32, ptr %5, align 4, !tbaa !16
  %125 = sext i32 %124 to i64
  %126 = getelementptr inbounds i32, ptr %123, i64 %125
  %127 = load i32, ptr %126, align 4, !tbaa !16
  %128 = icmp sgt i32 %127, 0
  br i1 %128, label %129, label %137

129:                                              ; preds = %122
  %130 = load i32, ptr %5, align 4, !tbaa !16
  %131 = load ptr, ptr %10, align 8, !tbaa !40
  %132 = load i32, ptr %5, align 4, !tbaa !16
  %133 = sext i32 %132 to i64
  %134 = getelementptr inbounds i32, ptr %131, i64 %133
  %135 = load i32, ptr %134, align 4, !tbaa !16
  %136 = call i32 (ptr, ...) @printf(ptr noundef @.str.1, i32 noundef %130, i32 noundef %135)
  br label %137

137:                                              ; preds = %129, %122
  br label %138

138:                                              ; preds = %137
  %139 = load i32, ptr %5, align 4, !tbaa !16
  %140 = add nsw i32 %139, 1
  store i32 %140, ptr %5, align 4, !tbaa !16
  br label %115, !llvm.loop !100

141:                                              ; preds = %115
  %142 = call i32 (ptr, ...) @printf(ptr noundef @.str.2)
  store i32 0, ptr %11, align 4, !tbaa !16
  store i32 0, ptr %5, align 4, !tbaa !16
  br label %143

143:                                              ; preds = %158, %141
  %144 = load i32, ptr %5, align 4, !tbaa !16
  %145 = load ptr, ptr %2, align 8, !tbaa !8
  %146 = getelementptr inbounds nuw %struct.Abc_ShaMan_t_, ptr %145, i32 0, i32 5
  %147 = load i32, ptr %146, align 8, !tbaa !87
  %148 = icmp slt i32 %144, %147
  br i1 %148, label %149, label %161

149:                                              ; preds = %143
  %150 = load ptr, ptr %10, align 8, !tbaa !40
  %151 = load i32, ptr %5, align 4, !tbaa !16
  %152 = sext i32 %151 to i64
  %153 = getelementptr inbounds i32, ptr %150, i64 %152
  %154 = load i32, ptr %153, align 4, !tbaa !16
  %155 = sub nsw i32 %154, 1
  %156 = load i32, ptr %11, align 4, !tbaa !16
  %157 = add nsw i32 %156, %155
  store i32 %157, ptr %11, align 4, !tbaa !16
  br label %158

158:                                              ; preds = %149
  %159 = load i32, ptr %5, align 4, !tbaa !16
  %160 = add nsw i32 %159, 1
  store i32 %160, ptr %5, align 4, !tbaa !16
  br label %143, !llvm.loop !101

161:                                              ; preds = %143
  %162 = load i32, ptr %11, align 4, !tbaa !16
  %163 = call i32 (ptr, ...) @printf(ptr noundef @.str.3, i32 noundef %162)
  %164 = load ptr, ptr %2, align 8, !tbaa !8
  %165 = getelementptr inbounds nuw %struct.Abc_ShaMan_t_, ptr %164, i32 0, i32 4
  %166 = load ptr, ptr %165, align 8, !tbaa !15
  %167 = call i32 @Vec_IntSize(ptr noundef %166)
  %168 = load ptr, ptr %2, align 8, !tbaa !8
  %169 = getelementptr inbounds nuw %struct.Abc_ShaMan_t_, ptr %168, i32 0, i32 5
  %170 = load i32, ptr %169, align 8, !tbaa !87
  %171 = sub nsw i32 %167, %170
  %172 = load i32, ptr %11, align 4, !tbaa !16
  %173 = add nsw i32 %171, %172
  %174 = call i32 (ptr, ...) @printf(ptr noundef @.str.4, i32 noundef %173)
  %175 = load ptr, ptr %10, align 8, !tbaa !40
  %176 = icmp ne ptr %175, null
  br i1 %176, label %177, label %179

177:                                              ; preds = %161
  %178 = load ptr, ptr %10, align 8, !tbaa !40
  call void @free(ptr noundef %178) #9
  store ptr null, ptr %10, align 8, !tbaa !40
  br label %180

179:                                              ; preds = %161
  br label %180

180:                                              ; preds = %179, %177
  %181 = load ptr, ptr %9, align 8, !tbaa !94
  %182 = icmp ne ptr %181, null
  br i1 %182, label %183, label %185

183:                                              ; preds = %180
  %184 = load ptr, ptr %9, align 8, !tbaa !94
  call void @free(ptr noundef %184) #9
  store ptr null, ptr %9, align 8, !tbaa !94
  br label %186

185:                                              ; preds = %180
  br label %186

186:                                              ; preds = %185, %183
  %187 = call i32 (ptr, ...) @printf(ptr noundef @.str.5)
  store i32 0, ptr %5, align 4, !tbaa !16
  br label %188

188:                                              ; preds = %207, %186
  %189 = load i32, ptr %5, align 4, !tbaa !16
  %190 = load ptr, ptr %2, align 8, !tbaa !8
  %191 = getelementptr inbounds nuw %struct.Abc_ShaMan_t_, ptr %190, i32 0, i32 3
  %192 = load ptr, ptr %191, align 8, !tbaa !23
  %193 = call i32 @Vec_PtrSize(ptr noundef %192)
  %194 = icmp slt i32 %189, %193
  br i1 %194, label %195, label %201

195:                                              ; preds = %188
  %196 = load ptr, ptr %2, align 8, !tbaa !8
  %197 = getelementptr inbounds nuw %struct.Abc_ShaMan_t_, ptr %196, i32 0, i32 3
  %198 = load ptr, ptr %197, align 8, !tbaa !23
  %199 = load i32, ptr %5, align 4, !tbaa !16
  %200 = call ptr @Vec_PtrEntry(ptr noundef %198, i32 noundef %199)
  store ptr %200, ptr %3, align 8, !tbaa !24
  br label %201

201:                                              ; preds = %195, %188
  %202 = phi i1 [ false, %188 ], [ true, %195 ]
  br i1 %202, label %203, label %210

203:                                              ; preds = %201
  %204 = load ptr, ptr %3, align 8, !tbaa !24
  %205 = call i32 @Vec_PtrSize(ptr noundef %204)
  %206 = call i32 (ptr, ...) @printf(ptr noundef @.str.6, i32 noundef %205)
  br label %207

207:                                              ; preds = %203
  %208 = load i32, ptr %5, align 4, !tbaa !16
  %209 = add nsw i32 %208, 1
  store i32 %209, ptr %5, align 4, !tbaa !16
  br label %188, !llvm.loop !102

210:                                              ; preds = %201
  %211 = call i32 (ptr, ...) @printf(ptr noundef @.str.2)
  call void @llvm.lifetime.end.p0(i64 4, ptr %11) #9
  call void @llvm.lifetime.end.p0(i64 8, ptr %10) #9
  call void @llvm.lifetime.end.p0(i64 8, ptr %9) #9
  call void @llvm.lifetime.end.p0(i64 4, ptr %8) #9
  call void @llvm.lifetime.end.p0(i64 4, ptr %7) #9
  call void @llvm.lifetime.end.p0(i64 4, ptr %6) #9
  call void @llvm.lifetime.end.p0(i64 4, ptr %5) #9
  call void @llvm.lifetime.end.p0(i64 8, ptr %4) #9
  call void @llvm.lifetime.end.p0(i64 8, ptr %3) #9
  ret void
}