; Function Attrs: nounwind uwtable
define void @Abc_NtkSharePrint(ptr noundef readonly captures(none) %0) local_unnamed_addr #3 {
  %2 = getelementptr inbounds nuw i8, ptr %0, i64 24
  %3 = load ptr, ptr %2, align 8, !tbaa !17
  %4 = getelementptr i8, ptr %3, i64 4
  %.val87 = load i32, ptr %4, align 4, !tbaa !12
  %5 = add nsw i32 %.val87, 1
  %6 = sext i32 %5 to i64
  %7 = tail call noalias ptr @malloc(i64 noundef %6) #14
  %8 = tail call noalias ptr @calloc(i64 noundef %6, i64 noundef 4) #13
  %9 = getelementptr inbounds nuw i8, ptr %0, i64 16
  %10 = load ptr, ptr %9, align 8, !tbaa !18
  %11 = getelementptr i8, ptr %10, i64 4
  %.val7599 = load i32, ptr %11, align 4, !tbaa !19
  %12 = icmp sgt i32 %.val7599, 0
  br i1 %12, label %.lr.ph102, label %.critedge.preheader

.critedge.preheader.loopexit:                     ; preds = %.critedge2
  %.pre136 = load ptr, ptr %2, align 8, !tbaa !17
  %.phi.trans.insert = getelementptr i8, ptr %.pre136, i64 4
  %.val83103.pre = load i32, ptr %.phi.trans.insert, align 4, !tbaa !12
  br label %.critedge.preheader

.critedge.preheader:                              ; preds = %.critedge.preheader.loopexit, %1
  %.val83103 = phi i32 [ %.val83103.pre, %.critedge.preheader.loopexit ], [ %.val87, %1 ]
  %13 = phi ptr [ %.pre136, %.critedge.preheader.loopexit ], [ %3, %1 ]
  %14 = icmp sgt i32 %.val83103, 0
  br i1 %14, label %.lr.ph105, label %.critedge._crit_edge

.lr.ph102:                                        ; preds = %1, %.critedge2
  %15 = phi ptr [ %53, %.critedge2 ], [ %10, %1 ]
  %indvars.iv124 = phi i64 [ %indvars.iv.next125, %.critedge2 ], [ 0, %1 ]
  %16 = getelementptr i8, ptr %15, i64 8
  %.val78 = load ptr, ptr %16, align 8, !tbaa !21
  %17 = getelementptr inbounds nuw ptr, ptr %.val78, i64 %indvars.iv124
  %18 = load ptr, ptr %17, align 8, !tbaa !22
  %19 = getelementptr i8, ptr %18, i64 4
  %.val7495 = load i32, ptr %19, align 4, !tbaa !19
  %20 = icmp sgt i32 %.val7495, 0
  br i1 %20, label %.lr.ph98, label %.critedge2

.lr.ph98:                                         ; preds = %.lr.ph102
  %21 = getelementptr i8, ptr %18, i64 8
  br label %22

22:                                               ; preds = %.lr.ph98, %.critedge4
  %indvars.iv121 = phi i64 [ 0, %.lr.ph98 ], [ %indvars.iv.next122, %.critedge4 ]
  %.val77 = load ptr, ptr %21, align 8, !tbaa !21
  %23 = getelementptr inbounds nuw ptr, ptr %.val77, i64 %indvars.iv121
  %24 = load ptr, ptr %23, align 8, !tbaa !22
  %25 = load ptr, ptr %2, align 8, !tbaa !17
  %26 = getelementptr i8, ptr %25, i64 4
  %.val8589 = load i32, ptr %26, align 4, !tbaa !12
  %27 = icmp sgt i32 %.val8589, 0
  br i1 %27, label %.lr.ph, label %._crit_edge

.lr.ph:                                           ; preds = %22, %.lr.ph
  %indvars.iv = phi i64 [ %indvars.iv.next, %.lr.ph ], [ 0, %22 ]
  %28 = getelementptr inbounds nuw i8, ptr %7, i64 %indvars.iv
  store i8 48, ptr %28, align 1, !tbaa !83
  %indvars.iv.next = add nuw nsw i64 %indvars.iv, 1
  %.val85 = load i32, ptr %26, align 4, !tbaa !12
  %29 = sext i32 %.val85 to i64
  %30 = icmp slt i64 %indvars.iv.next, %29
  br i1 %30, label %.lr.ph, label %._crit_edge.loopexit, !llvm.loop !84

._crit_edge.loopexit:                             ; preds = %.lr.ph
  %31 = and i64 %indvars.iv.next, 4294967295
  br label %._crit_edge

._crit_edge:                                      ; preds = %._crit_edge.loopexit, %22
  %.065.lcssa = phi i64 [ 0, %22 ], [ %31, %._crit_edge.loopexit ]
  %32 = getelementptr inbounds nuw i8, ptr %7, i64 %.065.lcssa
  store i8 0, ptr %32, align 1, !tbaa !83
  %33 = getelementptr i8, ptr %24, i64 4
  %.val8491 = load i32, ptr %33, align 4, !tbaa !12
  %34 = icmp sgt i32 %.val8491, 2
  br i1 %34, label %.lr.ph94, label %.critedge4

.lr.ph94:                                         ; preds = %._crit_edge
  %35 = getelementptr i8, ptr %24, i64 8
  br label %36

36:                                               ; preds = %.lr.ph94, %36
  %indvars.iv118 = phi i64 [ 2, %.lr.ph94 ], [ %indvars.iv.next119, %36 ]
  %.val79 = load ptr, ptr %35, align 8, !tbaa !16
  %37 = getelementptr inbounds nuw i32, ptr %.val79, i64 %indvars.iv118
  %38 = load i32, ptr %37, align 4, !tbaa !59
  %39 = sext i32 %38 to i64
  %40 = getelementptr inbounds i8, ptr %7, i64 %39
  store i8 49, ptr %40, align 1, !tbaa !83
  %41 = getelementptr inbounds i32, ptr %8, i64 %39
  %42 = load i32, ptr %41, align 4, !tbaa !59
  %43 = add nsw i32 %42, 1
  store i32 %43, ptr %41, align 4, !tbaa !59
  %indvars.iv.next119 = add nuw nsw i64 %indvars.iv118, 1
  %.val84 = load i32, ptr %33, align 4, !tbaa !12
  %44 = sext i32 %.val84 to i64
  %45 = icmp slt i64 %indvars.iv.next119, %44
  br i1 %45, label %36, label %.critedge4, !llvm.loop !85

.critedge4:                                       ; preds = %36, %._crit_edge
  %46 = getelementptr i8, ptr %24, i64 8
  %.val80 = load ptr, ptr %46, align 8, !tbaa !16
  %47 = load i32, ptr %.val80, align 4, !tbaa !59
  %48 = getelementptr inbounds nuw i8, ptr %.val80, i64 4
  %49 = load i32, ptr %48, align 4, !tbaa !59
  %50 = tail call i32 (ptr, ...) @printf(ptr noundef nonnull dereferenceable(1) @.str, i32 noundef %47, i32 noundef %49, ptr noundef nonnull %7)
  %indvars.iv.next122 = add nuw nsw i64 %indvars.iv121, 1
  %.val74 = load i32, ptr %19, align 4, !tbaa !19
  %51 = sext i32 %.val74 to i64
  %52 = icmp slt i64 %indvars.iv.next122, %51
  br i1 %52, label %22, label %.critedge2.loopexit, !llvm.loop !86

.critedge2.loopexit:                              ; preds = %.critedge4
  %.pre = load ptr, ptr %9, align 8, !tbaa !18
  br label %.critedge2

.critedge2:                                       ; preds = %.critedge2.loopexit, %.lr.ph102
  %53 = phi ptr [ %.pre, %.critedge2.loopexit ], [ %15, %.lr.ph102 ]
  %indvars.iv.next125 = add nuw nsw i64 %indvars.iv124, 1
  %54 = getelementptr i8, ptr %53, i64 4
  %.val75 = load i32, ptr %54, align 4, !tbaa !19
  %55 = sext i32 %.val75 to i64
  %56 = icmp slt i64 %indvars.iv.next125, %55
  br i1 %56, label %.lr.ph102, label %.critedge.preheader.loopexit, !llvm.loop !87

.lr.ph105:                                        ; preds = %.critedge.preheader, %.critedge
  %57 = phi ptr [ %64, %.critedge ], [ %13, %.critedge.preheader ]
  %indvars.iv127 = phi i64 [ %indvars.iv.next128, %.critedge ], [ 0, %.critedge.preheader ]
  %58 = getelementptr inbounds nuw i32, ptr %8, i64 %indvars.iv127
  %59 = load i32, ptr %58, align 4, !tbaa !59
  %60 = icmp sgt i32 %59, 0
  br i1 %60, label %61, label %.critedge

61:                                               ; preds = %.lr.ph105
  %62 = trunc nuw nsw i64 %indvars.iv127 to i32
  %63 = tail call i32 (ptr, ...) @printf(ptr noundef nonnull dereferenceable(1) @.str.1, i32 noundef %62, i32 noundef %59)
  %.pre138 = load ptr, ptr %2, align 8, !tbaa !17
  br label %.critedge

.critedge:                                        ; preds = %.lr.ph105, %61
  %64 = phi ptr [ %57, %.lr.ph105 ], [ %.pre138, %61 ]
  %indvars.iv.next128 = add nuw nsw i64 %indvars.iv127, 1
  %65 = getelementptr i8, ptr %64, i64 4
  %.val83 = load i32, ptr %65, align 4, !tbaa !12
  %66 = sext i32 %.val83 to i64
  %67 = icmp slt i64 %indvars.iv.next128, %66
  br i1 %67, label %.lr.ph105, label %.critedge._crit_edge, !llvm.loop !88

.critedge._crit_edge:                             ; preds = %.critedge, %.critedge.preheader
  %putchar = tail call i32 @putchar(i32 10)
  %68 = getelementptr inbounds nuw i8, ptr %0, i64 32
  %69 = load i32, ptr %68, align 8, !tbaa !79
  %70 = icmp sgt i32 %69, 0
  br i1 %70, label %.lr.ph109.preheader, label %._crit_edge110

.lr.ph109.preheader:                              ; preds = %.critedge._crit_edge
  %wide.trip.count = zext nneg i32 %69 to i64
  br label %.lr.ph109

.lr.ph109:                                        ; preds = %.lr.ph109.preheader, %.lr.ph109
  %indvars.iv130 = phi i64 [ 0, %.lr.ph109.preheader ], [ %indvars.iv.next131, %.lr.ph109 ]
  %.0107 = phi i32 [ 0, %.lr.ph109.preheader ], [ %74, %.lr.ph109 ]
  %71 = getelementptr inbounds nuw i32, ptr %8, i64 %indvars.iv130
  %72 = load i32, ptr %71, align 4, !tbaa !59
  %73 = add i32 %.0107, -1
  %74 = add i32 %73, %72
  %indvars.iv.next131 = add nuw nsw i64 %indvars.iv130, 1
  %exitcond.not = icmp eq i64 %indvars.iv.next131, %wide.trip.count
  br i1 %exitcond.not, label %._crit_edge110, label %.lr.ph109, !llvm.loop !89

._crit_edge110:                                   ; preds = %.lr.ph109, %.critedge._crit_edge
  %.0.lcssa = phi i32 [ 0, %.critedge._crit_edge ], [ %74, %.lr.ph109 ]
  %75 = tail call i32 (ptr, ...) @printf(ptr noundef nonnull dereferenceable(1) @.str.3, i32 noundef %.0.lcssa)
  %76 = load ptr, ptr %2, align 8, !tbaa !17
  %77 = getelementptr i8, ptr %76, i64 4
  %.val82 = load i32, ptr %77, align 4, !tbaa !12
  %78 = load i32, ptr %68, align 8, !tbaa !79
  %79 = add i32 %.val82, %.0.lcssa
  %80 = sub i32 %79, %78
  %81 = tail call i32 (ptr, ...) @printf(ptr noundef nonnull dereferenceable(1) @.str.4, i32 noundef %80)
  %.not = icmp eq ptr %8, null
  br i1 %.not, label %83, label %82

82:                                               ; preds = %._crit_edge110
  tail call void @free(ptr noundef nonnull %8) #15
  br label %83

83:                                               ; preds = %._crit_edge110, %82
  %.not71 = icmp eq ptr %7, null
  br i1 %.not71, label %85, label %84

84:                                               ; preds = %83
  tail call void @free(ptr noundef nonnull %7) #15
  br label %85

85:                                               ; preds = %83, %84
  %86 = tail call i32 (ptr, ...) @printf(ptr noundef nonnull dereferenceable(1) @.str.5)
  %87 = load ptr, ptr %9, align 8, !tbaa !18
  %88 = getelementptr i8, ptr %87, i64 4
  %.val73112 = load i32, ptr %88, align 4, !tbaa !19
  %89 = icmp sgt i32 %.val73112, 0
  br i1 %89, label %.lr.ph115, label %.critedge6

.lr.ph115:                                        ; preds = %85, %.lr.ph115
  %indvars.iv133 = phi i64 [ %indvars.iv.next134, %.lr.ph115 ], [ 0, %85 ]
  %90 = phi ptr [ %96, %.lr.ph115 ], [ %87, %85 ]
  %91 = getelementptr i8, ptr %90, i64 8
  %.val76 = load ptr, ptr %91, align 8, !tbaa !21
  %92 = getelementptr inbounds nuw ptr, ptr %.val76, i64 %indvars.iv133
  %93 = load ptr, ptr %92, align 8, !tbaa !22
  %94 = getelementptr i8, ptr %93, i64 4
  %.val = load i32, ptr %94, align 4, !tbaa !19
  %95 = tail call i32 (ptr, ...) @printf(ptr noundef nonnull dereferenceable(1) @.str.6, i32 noundef %.val)
  %indvars.iv.next134 = add nuw nsw i64 %indvars.iv133, 1
  %96 = load ptr, ptr %9, align 8, !tbaa !18
  %97 = getelementptr i8, ptr %96, i64 4
  %.val73 = load i32, ptr %97, align 4, !tbaa !19
  %98 = sext i32 %.val73 to i64
  %99 = icmp slt i64 %indvars.iv.next134, %98
  br i1 %99, label %.lr.ph115, label %.critedge6, !llvm.loop !90

.critedge6:                                       ; preds = %.lr.ph115, %85
  %putchar72 = tail call i32 @putchar(i32 10)
  ret void
}